target datalayout = "e-m:e-p270:32:32-p271:32:32-p272:64:64-i64:64-i128:128-f80:128-n8:16:32:64-S128"
target triple = "x86_64-pc-linux-gnu"

; Function Attrs: nounwind uwtable
define internal i32 @rsa_export(ptr noundef %0, i32 noundef %1, ptr noundef %2, ptr noundef %3) #0 {
  %5 = alloca i32, align 4
  %6 = alloca ptr, align 8
  %7 = alloca i32, align 4
  %8 = alloca ptr, align 8
  %9 = alloca ptr, align 8
  %10 = alloca ptr, align 8
  %11 = alloca ptr, align 8
  %12 = alloca ptr, align 8
  %13 = alloca ptr, align 8
  %14 = alloca i32, align 4
  %15 = alloca i32, align 4
  %16 = alloca i32, align 4
  store ptr %0, ptr %6, align 8, !tbaa !3
  store i32 %1, ptr %7, align 4, !tbaa !11
  store ptr %2, ptr %8, align 8, !tbaa !3
  store ptr %3, ptr %9, align 8, !tbaa !3
  call void @llvm.lifetime.start.p0(i64 8, ptr %10) #6
  %17 = load ptr, ptr %6, align 8, !tbaa !3
  store ptr %17, ptr %10, align 8, !tbaa !9
  call void @llvm.lifetime.start.p0(i64 8, ptr %11) #6
  %18 = load ptr, ptr %10, align 8, !tbaa !9
  %19 = call ptr @ossl_rsa_get0_pss_params_30(ptr noundef %18)
  store ptr %19, ptr %11, align 8, !tbaa !33
  call void @llvm.lifetime.start.p0(i64 8, ptr %12) #6
  call void @llvm.lifetime.start.p0(i64 8, ptr %13) #6
  store ptr null, ptr %13, align 8, !tbaa !13
  call void @llvm.lifetime.start.p0(i64 4, ptr %14) #6
  store i32 1, ptr %14, align 4, !tbaa !11
  %20 = call i32 @ossl_prov_is_running()
  %21 = icmp ne i32 %20, 0
  br i1 %21, label %22, label %25

22:                                               ; preds = %4
  %23 = load ptr, ptr %10, align 8, !tbaa !9
  %24 = icmp eq ptr %23, null
  br i1 %24, label %25, label %26

25:                                               ; preds = %22, %4
  store i32 0, ptr %5, align 4
  store i32 1, ptr %15, align 4
  br label %94

26:                                               ; preds = %22
  %27 = load i32, ptr %7, align 4, !tbaa !11
  %28 = and i32 %27, 131
  %29 = icmp eq i32 %28, 0
  br i1 %29, label %30, label %31

30:                                               ; preds = %26
  store i32 0, ptr %5, align 4
  store i32 1, ptr %15, align 4
  br label %94

31:                                               ; preds = %26
  %32 = call ptr @OSSL_PARAM_BLD_new()
  store ptr %32, ptr %12, align 8, !tbaa !37
  %33 = load ptr, ptr %12, align 8, !tbaa !37
  %34 = icmp eq ptr %33, null
  br i1 %34, label %35, label %36

35:                                               ; preds = %31
  store i32 0, ptr %5, align 4
  store i32 1, ptr %15, align 4
  br label %94

36:                                               ; preds = %31
  %37 = load i32, ptr %7, align 4, !tbaa !11
  %38 = and i32 %37, 128
  %39 = icmp ne i32 %38, 0
  br i1 %39, label %40, label %57

40:                                               ; preds = %36
  %41 = load i32, ptr %14, align 4, !tbaa !11
  %42 = icmp ne i32 %41, 0
  br i1 %42, label %43, label %54

43:                                               ; preds = %40
  %44 = load ptr, ptr %11, align 8, !tbaa !33
  %45 = call i32 @ossl_rsa_pss_params_30_is_unrestricted(ptr noundef %44)
  %46 = icmp ne i32 %45, 0
  br i1 %46, label %52, label %47

47:                                               ; preds = %43
  %48 = load ptr, ptr %11, align 8, !tbaa !33
  %49 = load ptr, ptr %12, align 8, !tbaa !37
  %50 = call i32 @ossl_rsa_pss_params_30_todata(ptr noundef %48, ptr noundef %49, ptr noundef null)
  %51 = icmp ne i32 %50, 0
  br label %52

52:                                               ; preds = %47, %43
  %53 = phi i1 [ true, %43 ], [ %51, %47 ]
  br label %54

54:                                               ; preds = %52, %40
  %55 = phi i1 [ false, %40 ], [ %53, %52 ]
  %56 = zext i1 %55 to i32
  store i32 %56, ptr %14, align 4, !tbaa !11
  br label %57

57:                                               ; preds = %54, %36
  %58 = load i32, ptr %7, align 4, !tbaa !11
  %59 = and i32 %58, 3
  %60 = icmp ne i32 %59, 0
  br i1 %60, label %61, label %77

61:                                               ; preds = %57
  call void @llvm.lifetime.start.p0(i64 4, ptr %16) #6
  %62 = load i32, ptr %7, align 4, !tbaa !11
  %63 = and i32 %62, 1
  %64 = icmp ne i32 %63, 0
  %65 = select i1 %64, i32 1, i32 0
  store i32 %65, ptr %16, align 4, !tbaa !11
  %66 = load i32, ptr %14, align 4, !tbaa !11
  %67 = icmp ne i32 %66, 0
  br i1 %67, label %68, label %74

68:                                               ; preds = %61
  %69 = load ptr, ptr %10, align 8, !tbaa !9
  %70 = load ptr, ptr %12, align 8, !tbaa !37
  %71 = load i32, ptr %16, align 4, !tbaa !11
  %72 = call i32 @ossl_rsa_todata(ptr noundef %69, ptr noundef %70, ptr noundef null, i32 noundef %71)
  %73 = icmp ne i32 %72, 0
  br label %74

74:                                               ; preds = %68, %61
  %75 = phi i1 [ false, %61 ], [ %73, %68 ]
  %76 = zext i1 %75 to i32
  store i32 %76, ptr %14, align 4, !tbaa !11
  call void @llvm.lifetime.end.p0(i64 4, ptr %16) #6
  br label %77

77:                                               ; preds = %74, %57
  %78 = load i32, ptr %14, align 4, !tbaa !11
  %79 = icmp ne i32 %78, 0
  br i1 %79, label %80, label %84

80:                                               ; preds = %77
  %81 = load ptr, ptr %12, align 8, !tbaa !37
  %82 = call ptr @OSSL_PARAM_BLD_to_param(ptr noundef %81)
  store ptr %82, ptr %13, align 8, !tbaa !13
  %83 = icmp eq ptr %82, null
  br i1 %83, label %84, label %85

84:                                               ; preds = %80, %77
  store i32 0, ptr %14, align 4, !tbaa !11
  br label %91

85:                                               ; preds = %80
  %86 = load ptr, ptr %8, align 8, !tbaa !3
  %87 = load ptr, ptr %13, align 8, !tbaa !13
  %88 = load ptr, ptr %9, align 8, !tbaa !3
  %89 = call i32 %86(ptr noundef %87, ptr noundef %88)
  store i32 %89, ptr %14, align 4, !tbaa !11
  %90 = load ptr, ptr %13, align 8, !tbaa !13
  call void @OSSL_PARAM_free(ptr noundef %90)
  br label %91

91:                                               ; preds = %85, %84
  %92 = load ptr, ptr %12, align 8, !tbaa !37
  call void @OSSL_PARAM_BLD_free(ptr noundef %92)
  %93 = load i32, ptr %14, align 4, !tbaa !11
  store i32 %93, ptr %5, align 4
  store i32 1, ptr %15, align 4
  br label %94

94:                                               ; preds = %91, %35, %30, %25
  call void @llvm.lifetime.end.p0(i64 4, ptr %14) #6
  call void @llvm.lifetime.end.p0(i64 8, ptr %13) #6
  call void @llvm.lifetime.end.p0(i64 8, ptr %12) #6
  call void @llvm.lifetime.end.p0(i64 8, ptr %11) #6
  call void @llvm.lifetime.end.p0(i64 8, ptr %10) #6
  %95 = load i32, ptr %5, align 4
  ret i32 %95
}