; Function Attrs: nounwind uwtable
define internal i32 @rsa_export(ptr noundef %0, i32 noundef %1, ptr noundef readonly captures(none) %2, ptr noundef %3) #0 {
  %5 = tail call ptr @ossl_rsa_get0_pss_params_30(ptr noundef %0) #6
  %6 = tail call i32 @ossl_prov_is_running() #6
  %7 = icmp eq i32 %6, 0
  %8 = icmp eq ptr %0, null
  %or.cond = or i1 %8, %7
  %9 = and i32 %1, 131
  %10 = icmp eq i32 %9, 0
  %or.cond35 = or i1 %10, %or.cond
  br i1 %or.cond35, label %36, label %11

11:                                               ; preds = %4
  %12 = tail call ptr @OSSL_PARAM_BLD_new() #6
  %13 = icmp eq ptr %12, null
  br i1 %13, label %36, label %14

14:                                               ; preds = %11
  %15 = and i32 %1, 128
  %.not = icmp eq i32 %15, 0
  br i1 %.not, label %22, label %16

16:                                               ; preds = %14
  %17 = tail call i32 @ossl_rsa_pss_params_30_is_unrestricted(ptr noundef %5) #6
  %.not29 = icmp eq i32 %17, 0
  br i1 %.not29, label %18, label %22

18:                                               ; preds = %16
  %19 = tail call i32 @ossl_rsa_pss_params_30_todata(ptr noundef %5, ptr noundef nonnull %12, ptr noundef null) #6
  %20 = icmp ne i32 %19, 0
  %21 = zext i1 %20 to i32
  br label %22

22:                                               ; preds = %18, %16, %14
  %.025 = phi i32 [ 1, %14 ], [ 1, %16 ], [ %21, %18 ]
  %23 = and i32 %1, 3
  %.not30 = icmp eq i32 %23, 0
  br i1 %.not30, label %30, label %24

24:                                               ; preds = %22
  %.not32 = icmp eq i32 %.025, 0
  br i1 %.not32, label %.thread, label %25

25:                                               ; preds = %24
  %26 = and i32 %1, 1
  %27 = tail call i32 @ossl_rsa_todata(ptr noundef nonnull %0, ptr noundef nonnull %12, ptr noundef null, i32 noundef %26) #6
  %28 = icmp ne i32 %27, 0
  %29 = zext i1 %28 to i32
  br label %30

30:                                               ; preds = %25, %22
  %.1 = phi i32 [ %.025, %22 ], [ %29, %25 ]
  %.not33 = icmp eq i32 %.1, 0
  br i1 %.not33, label %.thread, label %31

31:                                               ; preds = %30
  %32 = tail call ptr @OSSL_PARAM_BLD_to_param(ptr noundef nonnull %12) #6
  %33 = icmp eq ptr %32, null
  br i1 %33, label %.thread, label %34

34:                                               ; preds = %31
  %35 = tail call i32 %2(ptr noundef nonnull %32, ptr noundef %3) #6
  tail call void @OSSL_PARAM_free(ptr noundef nonnull %32) #6
  br label %.thread

.thread:                                          ; preds = %24, %30, %31, %34
  %.2 = phi i32 [ %35, %34 ], [ 0, %31 ], [ 0, %30 ], [ 0, %24 ]
  tail call void @OSSL_PARAM_BLD_free(ptr noundef nonnull %12) #6
  br label %36

36:                                               ; preds = %11, %4, %.thread
  %.0 = phi i32 [ %.2, %.thread ], [ 0, %4 ], [ 0, %11 ]
  ret i32 %.0
}